; ModuleID = '27/1896.c'
source_filename = "27/1896.c"
target datalayout = "e-m:e-p270:32:32-p271:32:32-p272:64:64-i64:64-f80:128-n8:16:32:64-S128"
target triple = "x86_64-pc-linux-gnu"

@.str = private unnamed_addr constant [3 x i8] c"%d\00", align 1
@.str.1 = private unnamed_addr constant [12 x i8] c"%lf %lf %lf\00", align 1
@.str.2 = private unnamed_addr constant [9 x i8] c"x1=%.5f;\00", align 1
@.str.3 = private unnamed_addr constant [9 x i8] c"x2=%.5f\0A\00", align 1
@.str.4 = private unnamed_addr constant [19 x i8] c"x1=0.00000+%0.5fi;\00", align 1
@.str.5 = private unnamed_addr constant [19 x i8] c"x2=0.00000-%0.5fi\0A\00", align 1
@.str.6 = private unnamed_addr constant [16 x i8] c"x1=%.5f+%0.5fi;\00", align 1
@.str.7 = private unnamed_addr constant [16 x i8] c"x2=%.5f-%0.5fi\0A\00", align 1
@.str.8 = private unnamed_addr constant [12 x i8] c"x1=x2=%.5f\0A\00", align 1

; Function Attrs: noinline nounwind uwtable
define dso_local i32 @main() #0 {
  %1 = alloca i32, align 4
  %2 = alloca i32, align 4
  %3 = alloca i32, align 4
  %4 = alloca double, align 8
  %5 = alloca double, align 8
  %6 = alloca double, align 8
  %7 = alloca double, align 8
  store i32 0, i32* %1, align 4
  %8 = call i32 (i8*, ...) @__isoc99_scanf(i8* getelementptr inbounds ([3 x i8], [3 x i8]* @.str, i64 0, i64 0), i32* %2)
  store i32 1, i32* %3, align 4
  br label %9

9:                                                ; preds = %100, %0
  %10 = load i32, i32* %3, align 4
  %11 = load i32, i32* %2, align 4
  %12 = icmp sle i32 %10, %11
  br i1 %12, label %13, label %103

13:                                               ; preds = %9
  %14 = call i32 (i8*, ...) @__isoc99_scanf(i8* getelementptr inbounds ([12 x i8], [12 x i8]* @.str.1, i64 0, i64 0), double* %4, double* %5, double* %6)
  %15 = load double, double* %5, align 8
  %16 = load double, double* %5, align 8
  %17 = fmul double %15, %16
  %18 = load double, double* %4, align 8
  %19 = fmul double 4.000000e+00, %18
  %20 = load double, double* %6, align 8
  %21 = fmul double %19, %20
  %22 = fsub double %17, %21
  store double %22, double* %7, align 8
  %23 = load double, double* %7, align 8
  %24 = fcmp ogt double %23, 0.000000e+00
  br i1 %24, label %25, label %44

25:                                               ; preds = %13
  %26 = load double, double* %5, align 8
  %27 = fneg double %26
  %28 = load double, double* %7, align 8
  %29 = call double @sqrt(double %28) #3
  %30 = fadd double %27, %29
  %31 = load double, double* %4, align 8
  %32 = fmul double 2.000000e+00, %31
  %33 = fdiv double %30, %32
  %34 = call i32 (i8*, ...) @printf(i8* getelementptr inbounds ([9 x i8], [9 x i8]* @.str.2, i64 0, i64 0), double %33)
  %35 = load double, double* %5, align 8
  %36 = fneg double %35
  %37 = load double, double* %7, align 8
  %38 = call double @sqrt(double %37) #3
  %39 = fsub double %36, %38
  %40 = load double, double* %4, align 8
  %41 = fmul double 2.000000e+00, %40
  %42 = fdiv double %39, %41
  %43 = call i32 (i8*, ...) @printf(i8* getelementptr inbounds ([9 x i8], [9 x i8]* @.str.3, i64 0, i64 0), double %42)
  br label %99

44:                                               ; preds = %13
  %45 = load double, double* %7, align 8
  %46 = fcmp olt double %45, 0.000000e+00
  br i1 %46, label %47, label %91

47:                                               ; preds = %44
  %48 = load double, double* %5, align 8
  %49 = fcmp oeq double %48, 0.000000e+00
  br i1 %49, label %50, label %65

50:                                               ; preds = %47
  %51 = load double, double* %7, align 8
  %52 = fneg double %51
  %53 = call double @sqrt(double %52) #3
  %54 = load double, double* %4, align 8
  %55 = fmul double 2.000000e+00, %54
  %56 = fdiv double %53, %55
  %57 = call i32 (i8*, ...) @printf(i8* getelementptr inbounds ([19 x i8], [19 x i8]* @.str.4, i64 0, i64 0), double %56)
  %58 = load double, double* %7, align 8
  %59 = fneg double %58
  %60 = call double @sqrt(double %59) #3
  %61 = load double, double* %4, align 8
  %62 = fmul double 2.000000e+00, %61
  %63 = fdiv double %60, %62
  %64 = call i32 (i8*, ...) @printf(i8* getelementptr inbounds ([19 x i8], [19 x i8]* @.str.5, i64 0, i64 0), double %63)
  br label %90

65:                                               ; preds = %47
  %66 = load double, double* %5, align 8
  %67 = fneg double %66
  %68 = load double, double* %4, align 8
  %69 = fmul double 2.000000e+00, %68
  %70 = fdiv double %67, %69
  %71 = load double, double* %7, align 8
  %72 = fneg double %71
  %73 = call double @sqrt(double %72) #3
  %74 = load double, double* %4, align 8
  %75 = fmul double 2.000000e+00, %74
  %76 = fdiv double %73, %75
  %77 = call i32 (i8*, ...) @printf(i8* getelementptr inbounds ([16 x i8], [16 x i8]* @.str.6, i64 0, i64 0), double %70, double %76)
  %78 = load double, double* %5, align 8
  %79 = fneg double %78
  %80 = load double, double* %4, align 8
  %81 = fmul double 2.000000e+00, %80
  %82 = fdiv double %79, %81
  %83 = load double, double* %7, align 8
  %84 = fneg double %83
  %85 = call double @sqrt(double %84) #3
  %86 = load double, double* %4, align 8
  %87 = fmul double 2.000000e+00, %86
  %88 = fdiv double %85, %87
  %89 = call i32 (i8*, ...) @printf(i8* getelementptr inbounds ([16 x i8], [16 x i8]* @.str.7, i64 0, i64 0), double %82, double %88)
  br label %90

90:                                               ; preds = %65, %50
  br label %98

91:                                               ; preds = %44
  %92 = load double, double* %5, align 8
  %93 = fneg double %92
  %94 = load double, double* %4, align 8
  %95 = fmul double 2.000000e+00, %94
  %96 = fdiv double %93, %95
  %97 = call i32 (i8*, ...) @printf(i8* getelementptr inbounds ([12 x i8], [12 x i8]* @.str.8, i64 0, i64 0), double %96)
  br label %98

98:                                               ; preds = %91, %90
  br label %99

99:                                               ; preds = %98, %25
  br label %100

100:                                              ; preds = %99
  %101 = load i32, i32* %3, align 4
  %102 = add nsw i32 %101, 1
  store i32 %102, i32* %3, align 4
  br label %9

103:                                              ; preds = %9
  ret i32 0
}

declare dso_local i32 @__isoc99_scanf(i8*, ...) #1

declare dso_local i32 @printf(i8*, ...) #1

; Function Attrs: nounwind
declare dso_local double @sqrt(double) #2


!llvm.module.flags = !{!0}
!llvm.ident = !{!1}

!0 = !{i32 1, !"wchar_size", i32 4}
!1 = !{!"clang version 10.0.0-4ubuntu1 "}
